; Function Attrs: nounwind uwtable
define internal fastcc ptr @_init_l_Lean_Elab_Tactic_NormCast_evalPushCast___regBuiltin_Lean_Elab_Tactic_NormCast_evalPushCast__1___closed__4() unnamed_addr #0 {
  %1 = load ptr, ptr @l_Lean_Elab_Tactic_NormCast_initFn____x40_Lean_Elab_Tactic_NormCast___hyg_5____closed__4, align 8, !tbaa !4
  %2 = load ptr, ptr @l_Lean_Elab_Tactic_NormCast_initFn____x40_Lean_Elab_Tactic_NormCast___hyg_5____closed__6, align 8, !tbaa !4
  %3 = load ptr, ptr @l_Lean_Elab_Tactic_NormCast_initFn____x40_Lean_Elab_Tactic_NormCast___hyg_5____closed__1, align 8, !tbaa !4
  %4 = load ptr, ptr @l_Lean_Elab_Tactic_NormCast_initFn____x40_Lean_Elab_Tactic_NormCast___hyg_5____closed__9, align 8, !tbaa !4
  %5 = load ptr, ptr @l_Lean_Elab_Tactic_NormCast_evalPushCast___regBuiltin_Lean_Elab_Tactic_NormCast_evalPushCast__1___closed__3, align 8, !tbaa !4
  %6 = tail call ptr @l_Lean_Name_mkStr5(ptr noundef %1, ptr noundef %2, ptr noundef %3, ptr noundef %4, ptr noundef %5) #5
  ret ptr %6
}